target datalayout = "e-m:e-p270:32:32-p271:32:32-p272:64:64-i64:64-i128:128-f80:128-n8:16:32:64-S128"
target triple = "x86_64-pc-linux-gnu"

%struct.ForEachState = type { ptr, i32 }
%struct.List = type { i32, i32, i32, ptr, [0 x %union.ListCell] }
%union.ListCell = type { ptr }
%struct.RTEPermissionInfo = type { i32, i32, i8, i64, i32, ptr, ptr, ptr }

@ExecutorCheckPerms_hook = dso_local global ptr null, align 8

; Function Attrs: nounwind uwtable
define internal zeroext i1 @ExecCheckOneRelPerms(ptr noundef %0) #0 {
  %2 = alloca i1, align 1
  %3 = alloca ptr, align 8
  %4 = alloca i64, align 8
  %5 = alloca i64, align 8
  %6 = alloca i64, align 8
  %7 = alloca i32, align 4
  %8 = alloca i32, align 4
  %9 = alloca i32, align 4
  %10 = alloca i32, align 4
  %11 = alloca i16, align 2
  store ptr %0, ptr %3, align 8
  call void @llvm.lifetime.start.p0(i64 8, ptr %4) #9
  call void @llvm.lifetime.start.p0(i64 8, ptr %5) #9
  call void @llvm.lifetime.start.p0(i64 8, ptr %6) #9
  call void @llvm.lifetime.start.p0(i64 4, ptr %7) #9
  call void @llvm.lifetime.start.p0(i64 4, ptr %8) #9
  %12 = load ptr, ptr %3, align 8
  %13 = getelementptr inbounds nuw %struct.RTEPermissionInfo, ptr %12, i32 0, i32 1
  %14 = load i32, ptr %13, align 4
  store i32 %14, ptr %8, align 4
  %15 = load ptr, ptr %3, align 8
  %16 = getelementptr inbounds nuw %struct.RTEPermissionInfo, ptr %15, i32 0, i32 3
  %17 = load i64, ptr %16, align 8
  store i64 %17, ptr %4, align 8
  %18 = load ptr, ptr %3, align 8
  %19 = getelementptr inbounds nuw %struct.RTEPermissionInfo, ptr %18, i32 0, i32 4
  %20 = load i32, ptr %19, align 8
  %21 = icmp ne i32 %20, 0
  br i1 %21, label %22, label %26

22:                                               ; preds = %1
  %23 = load ptr, ptr %3, align 8
  %24 = getelementptr inbounds nuw %struct.RTEPermissionInfo, ptr %23, i32 0, i32 4
  %25 = load i32, ptr %24, align 8
  br label %28

26:                                               ; preds = %1
  %27 = call i32 @GetUserId()
  br label %28

28:                                               ; preds = %26, %22
  %29 = phi i32 [ %25, %22 ], [ %27, %26 ]
  store i32 %29, ptr %7, align 4
  %30 = load i32, ptr %8, align 4
  %31 = load i32, ptr %7, align 4
  %32 = load i64, ptr %4, align 8
  %33 = call i64 @pg_class_aclmask(i32 noundef %30, i32 noundef %31, i64 noundef %32, i32 noundef 0)
  store i64 %33, ptr %5, align 8
  %34 = load i64, ptr %4, align 8
  %35 = load i64, ptr %5, align 8
  %36 = xor i64 %35, -1
  %37 = and i64 %34, %36
  store i64 %37, ptr %6, align 8
  %38 = load i64, ptr %6, align 8
  %39 = icmp ne i64 %38, 0
  br i1 %39, label %40, label %124

40:                                               ; preds = %28
  call void @llvm.lifetime.start.p0(i64 4, ptr %9) #9
  store i32 -1, ptr %9, align 4
  %41 = load i64, ptr %6, align 8
  %42 = and i64 %41, -8
  %43 = icmp ne i64 %42, 0
  br i1 %43, label %44, label %45

44:                                               ; preds = %40
  store i1 false, ptr %2, align 1
  store i32 1, ptr %10, align 4
  br label %121

45:                                               ; preds = %40
  %46 = load i64, ptr %6, align 8
  %47 = and i64 %46, 2
  %48 = icmp ne i64 %47, 0
  br i1 %48, label %49, label %96

49:                                               ; preds = %45
  %50 = load ptr, ptr %3, align 8
  %51 = getelementptr inbounds nuw %struct.RTEPermissionInfo, ptr %50, i32 0, i32 5
  %52 = load ptr, ptr %51, align 8
  %53 = icmp eq ptr %52, null
  br i1 %53, label %54, label %61

54:                                               ; preds = %49
  %55 = load i32, ptr %8, align 4
  %56 = load i32, ptr %7, align 4
  %57 = call i32 @pg_attribute_aclcheck_all(i32 noundef %55, i32 noundef %56, i64 noundef 2, i32 noundef 1)
  %58 = icmp ne i32 %57, 0
  br i1 %58, label %59, label %60

59:                                               ; preds = %54
  store i1 false, ptr %2, align 1
  store i32 1, ptr %10, align 4
  br label %121

60:                                               ; preds = %54
  br label %61

61:                                               ; preds = %60, %49
  br label %62

62:                                               ; preds = %94, %61
  %63 = load ptr, ptr %3, align 8
  %64 = getelementptr inbounds nuw %struct.RTEPermissionInfo, ptr %63, i32 0, i32 5
  %65 = load ptr, ptr %64, align 8
  %66 = load i32, ptr %9, align 4
  %67 = call i32 @bms_next_member(ptr noundef %65, i32 noundef %66)
  store i32 %67, ptr %9, align 4
  %68 = icmp sge i32 %67, 0
  br i1 %68, label %69, label %95

69:                                               ; preds = %62
  call void @llvm.lifetime.start.p0(i64 2, ptr %11) #9
  %70 = load i32, ptr %9, align 4
  %71 = add i32 %70, -7
  %72 = trunc i32 %71 to i16
  store i16 %72, ptr %11, align 2
  %73 = load i16, ptr %11, align 2
  %74 = sext i16 %73 to i32
  %75 = icmp eq i32 %74, 0
  br i1 %75, label %76, label %83

76:                                               ; preds = %69
  %77 = load i32, ptr %8, align 4
  %78 = load i32, ptr %7, align 4
  %79 = call i32 @pg_attribute_aclcheck_all(i32 noundef %77, i32 noundef %78, i64 noundef 2, i32 noundef 0)
  %80 = icmp ne i32 %79, 0
  br i1 %80, label %81, label %82

81:                                               ; preds = %76
  store i1 false, ptr %2, align 1
  store i32 1, ptr %10, align 4
  br label %92

82:                                               ; preds = %76
  br label %91

83:                                               ; preds = %69
  %84 = load i32, ptr %8, align 4
  %85 = load i16, ptr %11, align 2
  %86 = load i32, ptr %7, align 4
  %87 = call i32 @pg_attribute_aclcheck(i32 noundef %84, i16 noundef signext %85, i32 noundef %86, i64 noundef 2)
  %88 = icmp ne i32 %87, 0
  br i1 %88, label %89, label %90

89:                                               ; preds = %83
  store i1 false, ptr %2, align 1
  store i32 1, ptr %10, align 4
  br label %92

90:                                               ; preds = %83
  br label %91

91:                                               ; preds = %90, %82
  store i32 0, ptr %10, align 4
  br label %92

92:                                               ; preds = %91, %89, %81
  call void @llvm.lifetime.end.p0(i64 2, ptr %11) #9
  %93 = load i32, ptr %10, align 4
  switch i32 %93, label %121 [
    i32 0, label %94
  ]

94:                                               ; preds = %92
  br label %62, !llvm.loop !14

95:                                               ; preds = %62
  br label %96

96:                                               ; preds = %95, %45
  %97 = load i64, ptr %6, align 8
  %98 = and i64 %97, 1
  %99 = icmp ne i64 %98, 0
  br i1 %99, label %100, label %108

100:                                              ; preds = %96
  %101 = load i32, ptr %8, align 4
  %102 = load i32, ptr %7, align 4
  %103 = load ptr, ptr %3, align 8
  %104 = getelementptr inbounds nuw %struct.RTEPermissionInfo, ptr %103, i32 0, i32 6
  %105 = load ptr, ptr %104, align 8
  %106 = call zeroext i1 @ExecCheckPermissionsModified(i32 noundef %101, i32 noundef %102, ptr noundef %105, i64 noundef 1)
  br i1 %106, label %108, label %107

107:                                              ; preds = %100
  store i1 false, ptr %2, align 1
  store i32 1, ptr %10, align 4
  br label %121

108:                                              ; preds = %100, %96
  %109 = load i64, ptr %6, align 8
  %110 = and i64 %109, 4
  %111 = icmp ne i64 %110, 0
  br i1 %111, label %112, label %120

112:                                              ; preds = %108
  %113 = load i32, ptr %8, align 4
  %114 = load i32, ptr %7, align 4
  %115 = load ptr, ptr %3, align 8
  %116 = getelementptr inbounds nuw %struct.RTEPermissionInfo, ptr %115, i32 0, i32 7
  %117 = load ptr, ptr %116, align 8
  %118 = call zeroext i1 @ExecCheckPermissionsModified(i32 noundef %113, i32 noundef %114, ptr noundef %117, i64 noundef 4)
  br i1 %118, label %120, label %119

119:                                              ; preds = %112
  store i1 false, ptr %2, align 1
  store i32 1, ptr %10, align 4
  br label %121

120:                                              ; preds = %112, %108
  store i32 0, ptr %10, align 4
  br label %121

121:                                              ; preds = %120, %119, %107, %92, %59, %44
  call void @llvm.lifetime.end.p0(i64 4, ptr %9) #9
  %122 = load i32, ptr %10, align 4
  switch i32 %122, label %125 [
    i32 0, label %123
  ]

123:                                              ; preds = %121
  br label %124

124:                                              ; preds = %123, %28
  store i1 true, ptr %2, align 1
  store i32 1, ptr %10, align 4
  br label %125

125:                                              ; preds = %124, %121
  call void @llvm.lifetime.end.p0(i64 4, ptr %8) #9
  call void @llvm.lifetime.end.p0(i64 4, ptr %7) #9
  call void @llvm.lifetime.end.p0(i64 8, ptr %6) #9
  call void @llvm.lifetime.end.p0(i64 8, ptr %5) #9
  call void @llvm.lifetime.end.p0(i64 8, ptr %4) #9
  %126 = load i1, ptr %2, align 1
  ret i1 %126
}

; Function Attrs: nounwind uwtable
define dso_local zeroext i1 @ExecCheckPermissions(ptr noundef %0, ptr noundef %1, i1 noundef zeroext %2) #0 {
  %4 = alloca i1, align 1
  %5 = alloca ptr, align 8
  %6 = alloca ptr, align 8
  %7 = alloca i8, align 1
  %8 = alloca ptr, align 8
  %9 = alloca i8, align 1
  %10 = alloca %struct.ForEachState, align 8
  %11 = alloca i32, align 4
  %12 = alloca ptr, align 8
  store ptr %0, ptr %5, align 8
  store ptr %1, ptr %6, align 8
  %13 = zext i1 %2 to i8
  store i8 %13, ptr %7, align 1
  call void @llvm.lifetime.start.p0(i64 8, ptr %8) #9
  call void @llvm.lifetime.start.p0(i64 1, ptr %9) #9
  store i8 1, ptr %9, align 1
  call void @llvm.lifetime.start.p0(i64 16, ptr %10) #9
  %14 = getelementptr inbounds nuw %struct.ForEachState, ptr %10, i32 0, i32 0
  %15 = load ptr, ptr %6, align 8
  store ptr %15, ptr %14, align 8
  %16 = getelementptr inbounds nuw %struct.ForEachState, ptr %10, i32 0, i32 1
  store i32 0, ptr %16, align 8
  %17 = getelementptr i8, ptr %10, i64 12
  call void @llvm.memset.p0.i64(ptr align 4 %17, i8 0, i64 4, i1 false)
  br label %18

18:                                               ; preds = %70, %3
  %19 = getelementptr inbounds nuw %struct.ForEachState, ptr %10, i32 0, i32 0
  %20 = load ptr, ptr %19, align 8
  %21 = icmp ne ptr %20, null
  br i1 %21, label %22, label %39

22:                                               ; preds = %18
  %23 = getelementptr inbounds nuw %struct.ForEachState, ptr %10, i32 0, i32 1
  %24 = load i32, ptr %23, align 8
  %25 = getelementptr inbounds nuw %struct.ForEachState, ptr %10, i32 0, i32 0
  %26 = load ptr, ptr %25, align 8
  %27 = getelementptr inbounds nuw %struct.List, ptr %26, i32 0, i32 1
  %28 = load i32, ptr %27, align 4
  %29 = icmp slt i32 %24, %28
  br i1 %29, label %30, label %39

30:                                               ; preds = %22
  %31 = getelementptr inbounds nuw %struct.ForEachState, ptr %10, i32 0, i32 0
  %32 = load ptr, ptr %31, align 8
  %33 = getelementptr inbounds nuw %struct.List, ptr %32, i32 0, i32 3
  %34 = load ptr, ptr %33, align 8
  %35 = getelementptr inbounds nuw %struct.ForEachState, ptr %10, i32 0, i32 1
  %36 = load i32, ptr %35, align 8
  %37 = sext i32 %36 to i64
  %38 = getelementptr inbounds %union.ListCell, ptr %34, i64 %37
  store ptr %38, ptr %8, align 8
  br label %40

39:                                               ; preds = %22, %18
  store ptr null, ptr %8, align 8
  br label %40

40:                                               ; preds = %39, %30
  %41 = phi i32 [ 1, %30 ], [ 0, %39 ]
  %42 = icmp ne i32 %41, 0
  br i1 %42, label %44, label %43

43:                                               ; preds = %40
  store i32 2, ptr %11, align 4
  br label %74

44:                                               ; preds = %40
  call void @llvm.lifetime.start.p0(i64 8, ptr %12) #9
  %45 = load ptr, ptr %8, align 8
  %46 = load ptr, ptr %45, align 8
  store ptr %46, ptr %12, align 8
  %47 = load ptr, ptr %12, align 8
  %48 = call zeroext i1 @ExecCheckOneRelPerms(ptr noundef %47)
  %49 = zext i1 %48 to i8
  store i8 %49, ptr %9, align 1
  %50 = load i8, ptr %9, align 1, !range !4, !noundef !5
  %51 = trunc i8 %50 to i1
  br i1 %51, label %66, label %52

52:                                               ; preds = %44
  %53 = load i8, ptr %7, align 1, !range !4, !noundef !5
  %54 = trunc i8 %53 to i1
  br i1 %54, label %55, label %65

55:                                               ; preds = %52
  %56 = load ptr, ptr %12, align 8
  %57 = getelementptr inbounds nuw %struct.RTEPermissionInfo, ptr %56, i32 0, i32 1
  %58 = load i32, ptr %57, align 4
  %59 = call signext i8 @get_rel_relkind(i32 noundef %58)
  %60 = call i32 @get_relkind_objtype(i8 noundef signext %59)
  %61 = load ptr, ptr %12, align 8
  %62 = getelementptr inbounds nuw %struct.RTEPermissionInfo, ptr %61, i32 0, i32 1
  %63 = load i32, ptr %62, align 4
  %64 = call ptr @get_rel_name(i32 noundef %63)
  call void @aclcheck_error(i32 noundef 1, i32 noundef %60, ptr noundef %64)
  br label %65

65:                                               ; preds = %55, %52
  store i1 false, ptr %4, align 1
  store i32 1, ptr %11, align 4
  br label %67

66:                                               ; preds = %44
  store i32 0, ptr %11, align 4
  br label %67

67:                                               ; preds = %66, %65
  call void @llvm.lifetime.end.p0(i64 8, ptr %12) #9
  %68 = load i32, ptr %11, align 4
  switch i32 %68, label %74 [
    i32 0, label %69
  ]

69:                                               ; preds = %67
  br label %70

70:                                               ; preds = %69
  %71 = getelementptr inbounds nuw %struct.ForEachState, ptr %10, i32 0, i32 1
  %72 = load i32, ptr %71, align 8
  %73 = add i32 %72, 1
  store i32 %73, ptr %71, align 8
  br label %18, !llvm.loop !13

74:                                               ; preds = %67, %43
  call void @llvm.lifetime.end.p0(i64 16, ptr %10) #9
  %75 = load i32, ptr %11, align 4
  switch i32 %75, label %90 [
    i32 2, label %76
  ]

76:                                               ; preds = %74
  %77 = load ptr, ptr @ExecutorCheckPerms_hook, align 8
  %78 = icmp ne ptr %77, null
  br i1 %78, label %79, label %87

79:                                               ; preds = %76
  %80 = load ptr, ptr @ExecutorCheckPerms_hook, align 8
  %81 = load ptr, ptr %5, align 8
  %82 = load ptr, ptr %6, align 8
  %83 = load i8, ptr %7, align 1, !range !4, !noundef !5
  %84 = trunc i8 %83 to i1
  %85 = call zeroext i1 %80(ptr noundef %81, ptr noundef %82, i1 noundef zeroext %84)
  %86 = zext i1 %85 to i8
  store i8 %86, ptr %9, align 1
  br label %87

87:                                               ; preds = %79, %76
  %88 = load i8, ptr %9, align 1, !range !4, !noundef !5
  %89 = trunc i8 %88 to i1
  store i1 %89, ptr %4, align 1
  store i32 1, ptr %11, align 4
  br label %90

90:                                               ; preds = %87, %74
  call void @llvm.lifetime.end.p0(i64 1, ptr %9) #9
  call void @llvm.lifetime.end.p0(i64 8, ptr %8) #9
  %91 = load i1, ptr %4, align 1
  ret i1 %91
}