; Function Attrs: nounwind uwtable
define dso_local zeroext i1 @ExecCheckPermissions(ptr noundef %0, ptr noundef %1, i1 noundef zeroext %2) local_unnamed_addr #0 {
  %.not = icmp eq ptr %1, null
  br i1 %.not, label %._crit_edge, label %.lr.ph

.lr.ph:                                           ; preds = %3
  %4 = getelementptr inbounds nuw i8, ptr %1, i64 4
  %5 = getelementptr inbounds nuw i8, ptr %1, i64 16
  %6 = load i32, ptr %4, align 4
  %7 = icmp sgt i32 %6, 0
  br i1 %7, label %.lr.ph53, label %._crit_edge

.lr.ph53:                                         ; preds = %.lr.ph, %.critedge
  %indvars.iv52 = phi i64 [ %indvars.iv.next, %.critedge ], [ 0, %.lr.ph ]
  %8 = load ptr, ptr %5, align 8
  %9 = getelementptr inbounds nuw %union.ListCell, ptr %8, i64 %indvars.iv52
  %10 = load ptr, ptr %9, align 8
  %11 = getelementptr inbounds nuw i8, ptr %10, i64 4
  %12 = load i32, ptr %11, align 4
  %13 = getelementptr inbounds nuw i8, ptr %10, i64 16
  %14 = load i64, ptr %13, align 8
  %15 = getelementptr inbounds nuw i8, ptr %10, i64 24
  %16 = load i32, ptr %15, align 8
  %.not.i = icmp eq i32 %16, 0
  br i1 %.not.i, label %17, label %19

17:                                               ; preds = %.lr.ph53
  %18 = tail call i32 @GetUserId() #9
  br label %19

19:                                               ; preds = %17, %.lr.ph53
  %20 = phi i32 [ %18, %17 ], [ %16, %.lr.ph53 ]
  %21 = tail call i64 @pg_class_aclmask(i32 noundef %12, i32 noundef %20, i64 noundef %14, i32 noundef 0) #9
  %22 = xor i64 %21, -1
  %23 = and i64 %14, %22
  %.not41.i = icmp eq i64 %23, 0
  br i1 %.not41.i, label %.critedge, label %24

24:                                               ; preds = %19
  %.not42.i = icmp ult i64 %23, 8
  br i1 %.not42.i, label %25, label %.loopexit

25:                                               ; preds = %24
  %26 = and i64 %23, 2
  %.not43.i = icmp eq i64 %26, 0
  br i1 %.not43.i, label %.loopexit.i, label %27

27:                                               ; preds = %25
  %28 = getelementptr inbounds nuw i8, ptr %10, i64 32
  %29 = load ptr, ptr %28, align 8
  %30 = icmp eq ptr %29, null
  br i1 %30, label %31, label %33

31:                                               ; preds = %27
  %32 = tail call i32 @pg_attribute_aclcheck_all(i32 noundef %12, i32 noundef %20, i64 noundef 2, i32 noundef 1) #9
  %.not44.i = icmp eq i32 %32, 0
  br i1 %.not44.i, label %._crit_edge.i, label %.loopexit

._crit_edge.i:                                    ; preds = %31
  %.pre.i = load ptr, ptr %28, align 8
  br label %33

33:                                               ; preds = %._crit_edge.i, %27
  %34 = phi ptr [ %.pre.i, %._crit_edge.i ], [ %29, %27 ]
  %35 = tail call i32 @bms_next_member(ptr noundef %34, i32 noundef -1) #9
  %36 = icmp sgt i32 %35, -1
  br i1 %36, label %.lr.ph.i, label %.loopexit.i

.lr.ph.i:                                         ; preds = %33, %.critedge.i
  %37 = phi i32 [ %46, %.critedge.i ], [ %35, %33 ]
  %38 = trunc i32 %37 to i16
  %39 = add i16 %38, -7
  %40 = icmp eq i16 %39, 0
  br i1 %40, label %41, label %43

41:                                               ; preds = %.lr.ph.i
  %42 = tail call i32 @pg_attribute_aclcheck_all(i32 noundef %12, i32 noundef %20, i64 noundef 2, i32 noundef 0) #9
  %.not48.i = icmp eq i32 %42, 0
  br i1 %.not48.i, label %.critedge.i, label %.loopexit, !llvm.loop !8

43:                                               ; preds = %.lr.ph.i
  %44 = tail call i32 @pg_attribute_aclcheck(i32 noundef %12, i16 noundef signext %39, i32 noundef %20, i64 noundef 2) #9
  %.not47.i = icmp eq i32 %44, 0
  br i1 %.not47.i, label %.critedge.i, label %.loopexit, !llvm.loop !8

.critedge.i:                                      ; preds = %43, %41
  %45 = load ptr, ptr %28, align 8
  %46 = tail call i32 @bms_next_member(ptr noundef %45, i32 noundef %37) #9
  %47 = icmp sgt i32 %46, -1
  br i1 %47, label %.lr.ph.i, label %.loopexit.i

.loopexit.i:                                      ; preds = %.critedge.i, %33, %25
  %48 = and i64 %23, 1
  %.not45.i = icmp eq i64 %48, 0
  br i1 %.not45.i, label %53, label %49

49:                                               ; preds = %.loopexit.i
  %50 = getelementptr inbounds nuw i8, ptr %10, i64 40
  %51 = load ptr, ptr %50, align 8
  %52 = tail call fastcc zeroext i1 @ExecCheckPermissionsModified(i32 noundef %12, i32 noundef %20, ptr noundef %51, i64 noundef 1)
  br i1 %52, label %53, label %.loopexit

53:                                               ; preds = %49, %.loopexit.i
  %.not46.i = icmp ult i64 %23, 4
  br i1 %.not46.i, label %.critedge, label %54

54:                                               ; preds = %53
  %55 = getelementptr inbounds nuw i8, ptr %10, i64 48
  %56 = load ptr, ptr %55, align 8
  %57 = tail call fastcc zeroext i1 @ExecCheckPermissionsModified(i32 noundef %12, i32 noundef %20, ptr noundef %56, i64 noundef 4)
  br i1 %57, label %.critedge, label %.loopexit

.loopexit:                                        ; preds = %54, %49, %31, %24, %41, %43
  br i1 %2, label %58, label %.thread35

58:                                               ; preds = %.loopexit
  %59 = getelementptr inbounds nuw i8, ptr %10, i64 4
  %60 = load i32, ptr %59, align 4
  %61 = tail call signext i8 @get_rel_relkind(i32 noundef %60) #9
  %62 = tail call i32 @get_relkind_objtype(i8 noundef signext %61) #9
  %63 = load i32, ptr %59, align 4
  %64 = tail call ptr @get_rel_name(i32 noundef %63) #9
  tail call void @aclcheck_error(i32 noundef 1, i32 noundef %62, ptr noundef %64) #9
  br label %.thread35

.critedge:                                        ; preds = %53, %54, %19
  %indvars.iv.next = add nuw nsw i64 %indvars.iv52, 1
  %65 = load i32, ptr %4, align 4
  %66 = sext i32 %65 to i64
  %67 = icmp slt i64 %indvars.iv.next, %66
  br i1 %67, label %.lr.ph53, label %._crit_edge

._crit_edge:                                      ; preds = %.critedge, %.lr.ph, %3
  %68 = load ptr, ptr @ExecutorCheckPerms_hook, align 8
  %.not27 = icmp eq ptr %68, null
  br i1 %.not27, label %.thread35, label %69

69:                                               ; preds = %._crit_edge
  %70 = tail call zeroext i1 %68(ptr noundef %0, ptr noundef %1, i1 noundef zeroext %2) #9
  br label %.thread35

.thread35:                                        ; preds = %58, %.loopexit, %._crit_edge, %69
  %.3 = phi i1 [ %70, %69 ], [ true, %._crit_edge ], [ false, %.loopexit ], [ false, %58 ]
  ret i1 %.3
}